; Function Attrs: mustprogress nofree norecurse nosync nounwind willreturn memory(readwrite, argmem: write, inaccessiblemem: none) uwtable
define void @_ZN4lean15scope_cancel_tkC2EP11lean_object(ptr noundef nonnull writeonly align 8 captures(none) dereferenceable(16) initializes((0, 16)) %0, ptr noundef %1) unnamed_addr #4 align 2 {
  %3 = tail call align 8 ptr @llvm.threadlocal.address.p0(ptr align 8 @_ZN4leanL11g_cancel_tkE)
  store ptr %3, ptr %0, align 8, !tbaa !20
  %4 = getelementptr inbounds nuw i8, ptr %0, i64 8
  %5 = load ptr, ptr %3, align 8, !tbaa !22
  store ptr %5, ptr %4, align 8, !tbaa !23
  store ptr %1, ptr %3, align 8, !tbaa !22
  ret void
}